target datalayout = "e-m:e-p270:32:32-p271:32:32-p272:64:64-i64:64-i128:128-f80:128-n8:16:32:64-S128"
target triple = "x86_64-pc-linux-gnu"

%"class.google::LogMessageFatal" = type { %"class.google::LogMessage" }
%"class.google::LogMessage" = type { ptr, ptr, %"struct.google::LogMessageTime" }
%"struct.google::LogMessageTime" = type { %struct.tm, i64, i32, i64 }
%struct.tm = type { i32, i32, i32, i32, i32, i32, i32, i32, i32, i64, ptr }
%"class.ceres::internal::DenseCholesky" = type { ptr }
%"class.std::__cxx11::basic_string" = type { %"struct.std::__cxx11::basic_string<char>::_Alloc_hider", i64, %union.anon }
%"struct.std::__cxx11::basic_string<char>::_Alloc_hider" = type { ptr }
%union.anon = type { i64, [8 x i8] }
%"class.ceres::internal::CudaBuffer" = type { ptr, i64, ptr }
%"class.ceres::internal::CudaBuffer.196" = type { ptr, i64, ptr }
%"class.ceres::internal::ContextImpl" = type <{ %"class.ceres::Context", %"class.ceres::internal::ThreadPool", ptr, ptr, [2 x ptr], ptr, i8, [3 x i8], i32, %struct.cudaDeviceProp, i8, [3 x i8], i32, i32, [4 x i8] }>
%"class.ceres::Context" = type { ptr }
%"class.ceres::internal::ThreadPool" = type { %"class.ceres::internal::ConcurrentQueue", %"class.std::vector.200", %"class.std::mutex" }
%"class.ceres::internal::ConcurrentQueue" = type <{ %"class.std::mutex", %"class.std::condition_variable", %"class.std::queue", i8, [7 x i8] }>
%"class.std::condition_variable" = type { %"class.std::__condvar" }
%"class.std::__condvar" = type { %union.pthread_cond_t }
%union.pthread_cond_t = type { %struct.__pthread_cond_s }
%struct.__pthread_cond_s = type { %union.__atomic_wide_counter, %union.__atomic_wide_counter, [2 x i32], [2 x i32], i32, i32, [2 x i32] }
%union.__atomic_wide_counter = type { i64 }
%"class.std::queue" = type { %"class.std::deque" }
%"class.std::deque" = type { %"class.std::_Deque_base" }
%"class.std::_Deque_base" = type { %"struct.std::_Deque_base<std::function<void ()>, std::allocator<std::function<void ()>>>::_Deque_impl" }
%"struct.std::_Deque_base<std::function<void ()>, std::allocator<std::function<void ()>>>::_Deque_impl" = type { %"struct.std::_Deque_base<std::function<void ()>, std::allocator<std::function<void ()>>>::_Deque_impl_data" }
%"struct.std::_Deque_base<std::function<void ()>, std::allocator<std::function<void ()>>>::_Deque_impl_data" = type { ptr, i64, %"struct.std::_Deque_iterator", %"struct.std::_Deque_iterator" }
%"struct.std::_Deque_iterator" = type { ptr, ptr, ptr, ptr }
%"class.std::vector.200" = type { %"struct.std::_Vector_base.201" }
%"struct.std::_Vector_base.201" = type { %"struct.std::_Vector_base<std::thread, std::allocator<std::thread>>::_Vector_impl" }
%"struct.std::_Vector_base<std::thread, std::allocator<std::thread>>::_Vector_impl" = type { %"struct.std::_Vector_base<std::thread, std::allocator<std::thread>>::_Vector_impl_data" }
%"struct.std::_Vector_base<std::thread, std::allocator<std::thread>>::_Vector_impl_data" = type { ptr, ptr, ptr }
%"class.std::mutex" = type { %"class.std::__mutex_base" }
%"class.std::__mutex_base" = type { %union.pthread_mutex_t }
%union.pthread_mutex_t = type { %struct.__pthread_mutex_s }
%struct.__pthread_mutex_s = type { i32, i32, i32, i32, i32, i16, i16, %struct.__pthread_internal_list }
%struct.__pthread_internal_list = type { ptr, ptr }
%struct.cudaDeviceProp = type { [256 x i8], %struct.CUuuid_st, [8 x i8], i32, i64, i64, i32, i32, i64, i32, [3 x i32], [3 x i32], i32, i64, i32, i32, i64, i64, i32, i32, i32, i32, i32, i32, i32, i32, i32, [2 x i32], [2 x i32], [3 x i32], [2 x i32], [3 x i32], [3 x i32], i32, [2 x i32], [3 x i32], [2 x i32], i32, [2 x i32], [3 x i32], [2 x i32], [3 x i32], i32, [2 x i32], i64, i32, i32, i32, i32, i32, i32, i32, i32, i32, i32, i32, i32, i32, i32, i32, i32, i64, i32, i32, i32, i32, i32, i32, i32, i32, i32, i32, i32, i32, i64, i32, i32, i32, i32, i64 }
%struct.CUuuid_st = type { [16 x i8] }
%"class.ceres::internal::CUDADenseCholeskyMixedPrecision" = type { %"class.ceres::internal::DenseCholesky", ptr, i64, %"class.ceres::internal::CudaBuffer", %"class.ceres::internal::CudaBuffer", %"class.ceres::internal::CudaBuffer.205", %"class.ceres::internal::CudaBuffer.205", %"class.ceres::internal::CudaBuffer.196", %"class.ceres::internal::CudaBuffer", %"class.ceres::internal::CudaBuffer.205", %"class.ceres::internal::CudaBuffer.205", %"class.ceres::internal::CudaBuffer", i32, i32 }
%"class.ceres::internal::CudaBuffer.205" = type { ptr, i64, ptr }

@.str = private unnamed_addr constant [129 x i8] c"generated/home/dtcxzyw/WorkSpace/Projects/compilers/llvm-opt-benchmark/bench/ceres/ceres-solver/internal/ceres/dense_cholesky.cc\00", align 1
@.str.9 = private unnamed_addr constant [11 x i8] c"Argument: \00", align 1
@.str.10 = private unnamed_addr constant [13 x i8] c" is invalid.\00", align 1
@.str.13 = private unnamed_addr constant [8 x i8] c"Success\00", align 1
@.str.19 = private unnamed_addr constant [45 x i8] c"Congratulations, you found a bug in Ceres - \00", align 1
@.str.20 = private unnamed_addr constant [19 x i8] c"please report it. \00", align 1
@.str.27 = private unnamed_addr constant [48 x i8] c"cuSolverDN::cusolverDnSpotrf_bufferSize failed.\00", align 1
@.str.28 = private unnamed_addr constant [37 x i8] c"cuSolverDN::cusolverDnSpotrf failed.\00", align 1
@.str.29 = private unnamed_addr constant [43 x i8] c"cuSolverDN::cusolverDnSpotrf fatal error. \00", align 1
@.str.30 = private unnamed_addr constant [104 x i8] c"cuSolverDN::cusolverDnSpotrf numerical failure. The leading minor of order %d is not positive definite.\00", align 1

; Function Attrs: mustprogress nounwind uwtable
define linkonce_odr hidden noundef ptr @_ZN5ceres8internal10CudaBufferIiE4dataEv(ptr noundef nonnull align 8 dereferenceable(24) %0) #1 comdat align 2 {
  %2 = alloca ptr, align 8
  store ptr %0, ptr %2, align 8
  %3 = load ptr, ptr %2, align 8
  %4 = getelementptr inbounds %"class.ceres::internal::CudaBuffer.196", ptr %3, i32 0, i32 0
  %5 = load ptr, ptr %4, align 8
  ret ptr %5
}

; Function Attrs: mustprogress nounwind uwtable
define linkonce_odr hidden noundef i64 @_ZNK5ceres8internal10CudaBufferIfE4sizeEv(ptr noundef nonnull align 8 dereferenceable(24) %0) #1 comdat align 2 {
  %2 = alloca ptr, align 8
  store ptr %0, ptr %2, align 8
  %3 = load ptr, ptr %2, align 8
  %4 = getelementptr inbounds %"class.ceres::internal::CudaBuffer.205", ptr %3, i32 0, i32 1
  %5 = load i64, ptr %4, align 8
  ret i64 %5
}

; Function Attrs: mustprogress nounwind uwtable
define linkonce_odr hidden noundef ptr @_ZN5ceres8internal10CudaBufferIfE4dataEv(ptr noundef nonnull align 8 dereferenceable(24) %0) #1 comdat align 2 {
  %2 = alloca ptr, align 8
  store ptr %0, ptr %2, align 8
  %3 = load ptr, ptr %2, align 8
  %4 = getelementptr inbounds %"class.ceres::internal::CudaBuffer.205", ptr %3, i32 0, i32 0
  %5 = load ptr, ptr %4, align 8
  ret ptr %5
}

; Function Attrs: mustprogress uwtable
define hidden noundef i32 @_ZN5ceres8internal31CUDADenseCholeskyMixedPrecision21CudaCholeskyFactorizeEPNSt7__cxx1112basic_stringIcSt11char_traitsIcESaIcEEE(ptr noundef nonnull align 8 dereferenceable(248) %0, ptr noundef %1) #2 align 2 personality ptr @__gxx_personality_v0 {
  %3 = alloca i32, align 4
  %4 = alloca ptr, align 8
  %5 = alloca ptr, align 8
  %6 = alloca i32, align 4
  %7 = alloca i32, align 4
  %8 = alloca %"class.google::LogMessageFatal", align 8
  %9 = alloca ptr, align 8
  %10 = alloca i32, align 4
  %11 = alloca %"class.std::__cxx11::basic_string", align 8
  store ptr %0, ptr %4, align 8
  store ptr %1, ptr %5, align 8
  %12 = load ptr, ptr %4, align 8
  store i32 0, ptr %6, align 4
  %13 = getelementptr inbounds %"class.ceres::internal::CUDADenseCholeskyMixedPrecision", ptr %12, i32 0, i32 1
  %14 = load ptr, ptr %13, align 8
  %15 = getelementptr inbounds %"class.ceres::internal::ContextImpl", ptr %14, i32 0, i32 2
  %16 = load ptr, ptr %15, align 8
  %17 = getelementptr inbounds %"class.ceres::internal::CUDADenseCholeskyMixedPrecision", ptr %12, i32 0, i32 2
  %18 = load i64, ptr %17, align 8
  %19 = trunc i64 %18 to i32
  %20 = getelementptr inbounds %"class.ceres::internal::CUDADenseCholeskyMixedPrecision", ptr %12, i32 0, i32 5
  %21 = call noundef ptr @_ZN5ceres8internal10CudaBufferIfE4dataEv(ptr noundef nonnull align 8 dereferenceable(24) %20)
  %22 = getelementptr inbounds %"class.ceres::internal::CUDADenseCholeskyMixedPrecision", ptr %12, i32 0, i32 2
  %23 = load i64, ptr %22, align 8
  %24 = trunc i64 %23 to i32
  %25 = call i32 @cusolverDnSpotrf_bufferSize(ptr noundef %16, i32 noundef 0, i32 noundef %19, ptr noundef %21, i32 noundef %24, ptr noundef %6)
  %26 = icmp ne i32 %25, 0
  br i1 %26, label %27, label %30

27:                                               ; preds = %2
  %28 = load ptr, ptr %5, align 8
  %29 = call noundef nonnull align 8 dereferenceable(32) ptr @_ZNSt7__cxx1112basic_stringIcSt11char_traitsIcESaIcEEaSEPKc(ptr noundef nonnull align 8 dereferenceable(32) %28, ptr noundef @.str.27)
  store i32 3, ptr %3, align 4
  br label %95

30:                                               ; preds = %2
  %31 = getelementptr inbounds %"class.ceres::internal::CUDADenseCholeskyMixedPrecision", ptr %12, i32 0, i32 6
  %32 = load i32, ptr %6, align 4
  %33 = sext i32 %32 to i64
  call void @_ZN5ceres8internal10CudaBufferIfE7ReserveEm(ptr noundef nonnull align 8 dereferenceable(24) %31, i64 noundef %33)
  %34 = getelementptr inbounds %"class.ceres::internal::CUDADenseCholeskyMixedPrecision", ptr %12, i32 0, i32 1
  %35 = load ptr, ptr %34, align 8
  %36 = getelementptr inbounds %"class.ceres::internal::ContextImpl", ptr %35, i32 0, i32 2
  %37 = load ptr, ptr %36, align 8
  %38 = getelementptr inbounds %"class.ceres::internal::CUDADenseCholeskyMixedPrecision", ptr %12, i32 0, i32 2
  %39 = load i64, ptr %38, align 8
  %40 = trunc i64 %39 to i32
  %41 = getelementptr inbounds %"class.ceres::internal::CUDADenseCholeskyMixedPrecision", ptr %12, i32 0, i32 5
  %42 = call noundef ptr @_ZN5ceres8internal10CudaBufferIfE4dataEv(ptr noundef nonnull align 8 dereferenceable(24) %41)
  %43 = getelementptr inbounds %"class.ceres::internal::CUDADenseCholeskyMixedPrecision", ptr %12, i32 0, i32 2
  %44 = load i64, ptr %43, align 8
  %45 = trunc i64 %44 to i32
  %46 = getelementptr inbounds %"class.ceres::internal::CUDADenseCholeskyMixedPrecision", ptr %12, i32 0, i32 6
  %47 = call noundef ptr @_ZN5ceres8internal10CudaBufferIfE4dataEv(ptr noundef nonnull align 8 dereferenceable(24) %46)
  %48 = getelementptr inbounds %"class.ceres::internal::CUDADenseCholeskyMixedPrecision", ptr %12, i32 0, i32 6
  %49 = call noundef i64 @_ZNK5ceres8internal10CudaBufferIfE4sizeEv(ptr noundef nonnull align 8 dereferenceable(24) %48)
  %50 = trunc i64 %49 to i32
  %51 = getelementptr inbounds %"class.ceres::internal::CUDADenseCholeskyMixedPrecision", ptr %12, i32 0, i32 7
  %52 = call noundef ptr @_ZN5ceres8internal10CudaBufferIiE4dataEv(ptr noundef nonnull align 8 dereferenceable(24) %51)
  %53 = call i32 @cusolverDnSpotrf(ptr noundef %37, i32 noundef 0, i32 noundef %40, ptr noundef %42, i32 noundef %45, ptr noundef %47, i32 noundef %50, ptr noundef %52)
  %54 = icmp ne i32 %53, 0
  br i1 %54, label %55, label %58

55:                                               ; preds = %30
  %56 = load ptr, ptr %5, align 8
  %57 = call noundef nonnull align 8 dereferenceable(32) ptr @_ZNSt7__cxx1112basic_stringIcSt11char_traitsIcESaIcEEaSEPKc(ptr noundef nonnull align 8 dereferenceable(32) %56, ptr noundef @.str.28)
  store i32 3, ptr %3, align 4
  br label %95

58:                                               ; preds = %30
  store i32 0, ptr %7, align 4
  %59 = getelementptr inbounds %"class.ceres::internal::CUDADenseCholeskyMixedPrecision", ptr %12, i32 0, i32 7
  call void @_ZNK5ceres8internal10CudaBufferIiE9CopyToCpuEPim(ptr noundef nonnull align 8 dereferenceable(24) %59, ptr noundef %7, i64 noundef 1)
  %60 = load i32, ptr %7, align 4
  %61 = icmp slt i32 %60, 0
  br i1 %61, label %62, label %84

62:                                               ; preds = %58
  call void @_ZN6google15LogMessageFatalC1EPKci(ptr noundef nonnull align 8 dereferenceable(96) %8, ptr noundef @.str, i32 noundef 493)
  %63 = invoke noundef nonnull align 8 dereferenceable(8) ptr @_ZN6google10LogMessage6streamEv(ptr noundef nonnull align 8 dereferenceable(96) %8)
          to label %64 unwind label %79

64:                                               ; preds = %62
  %65 = invoke noundef nonnull align 8 dereferenceable(8) ptr @_ZStlsISt11char_traitsIcEERSt13basic_ostreamIcT_ES5_PKc(ptr noundef nonnull align 8 dereferenceable(8) %63, ptr noundef @.str.19)
          to label %66 unwind label %79

66:                                               ; preds = %64
  %67 = invoke noundef nonnull align 8 dereferenceable(8) ptr @_ZStlsISt11char_traitsIcEERSt13basic_ostreamIcT_ES5_PKc(ptr noundef nonnull align 8 dereferenceable(8) %65, ptr noundef @.str.20)
          to label %68 unwind label %79

68:                                               ; preds = %66
  %69 = invoke noundef nonnull align 8 dereferenceable(8) ptr @_ZStlsISt11char_traitsIcEERSt13basic_ostreamIcT_ES5_PKc(ptr noundef nonnull align 8 dereferenceable(8) %67, ptr noundef @.str.29)
          to label %70 unwind label %79

70:                                               ; preds = %68
  %71 = invoke noundef nonnull align 8 dereferenceable(8) ptr @_ZStlsISt11char_traitsIcEERSt13basic_ostreamIcT_ES5_PKc(ptr noundef nonnull align 8 dereferenceable(8) %69, ptr noundef @.str.9)
          to label %72 unwind label %79

72:                                               ; preds = %70
  %73 = load i32, ptr %7, align 4
  %74 = sub nsw i32 0, %73
  %75 = invoke noundef nonnull align 8 dereferenceable(8) ptr @_ZNSolsEi(ptr noundef nonnull align 8 dereferenceable(8) %71, i32 noundef %74)
          to label %76 unwind label %79

76:                                               ; preds = %72
  %77 = invoke noundef nonnull align 8 dereferenceable(8) ptr @_ZStlsISt11char_traitsIcEERSt13basic_ostreamIcT_ES5_PKc(ptr noundef nonnull align 8 dereferenceable(8) %75, ptr noundef @.str.10)
          to label %78 unwind label %79

78:                                               ; preds = %76
  call void @_ZN6google15LogMessageFatalD1Ev(ptr noundef nonnull align 8 dereferenceable(96) %8) #18
  unreachable

79:                                               ; preds = %76, %72, %70, %68, %66, %64, %62
  %80 = landingpad { ptr, i32 }
          cleanup
  %81 = extractvalue { ptr, i32 } %80, 0
  store ptr %81, ptr %9, align 8
  %82 = extractvalue { ptr, i32 } %80, 1
  store i32 %82, ptr %10, align 4
  call void @_ZN6google15LogMessageFatalD1Ev(ptr noundef nonnull align 8 dereferenceable(96) %8) #18
  unreachable

83:                                               ; No predecessors!
  br label %97

84:                                               ; preds = %58
  %85 = load i32, ptr %7, align 4
  %86 = icmp sgt i32 %85, 0
  br i1 %86, label %87, label %92

87:                                               ; preds = %84
  %88 = load i32, ptr %7, align 4
  call void (ptr, ptr, ...) @_ZN5ceres8internal12StringPrintfB5cxx11EPKcz(ptr dead_on_unwind writable sret(%"class.std::__cxx11::basic_string") align 8 %11, ptr noundef @.str.30, i32 noundef %88)
  %89 = load ptr, ptr %5, align 8
  %90 = call noundef nonnull align 8 dereferenceable(32) ptr @_ZNSt7__cxx1112basic_stringIcSt11char_traitsIcESaIcEEaSEOS4_(ptr noundef nonnull align 8 dereferenceable(32) %89, ptr noundef nonnull align 8 dereferenceable(32) %11) #14
  call void @_ZNSt7__cxx1112basic_stringIcSt11char_traitsIcESaIcEED1Ev(ptr noundef nonnull align 8 dereferenceable(32) %11) #14
  %91 = getelementptr inbounds %"class.ceres::internal::CUDADenseCholeskyMixedPrecision", ptr %12, i32 0, i32 13
  store i32 2, ptr %91, align 4
  store i32 2, ptr %3, align 4
  br label %95

92:                                               ; preds = %84
  %93 = load ptr, ptr %5, align 8
  %94 = call noundef nonnull align 8 dereferenceable(32) ptr @_ZNSt7__cxx1112basic_stringIcSt11char_traitsIcESaIcEEaSEPKc(ptr noundef nonnull align 8 dereferenceable(32) %93, ptr noundef @.str.13)
  store i32 0, ptr %3, align 4
  br label %95

95:                                               ; preds = %92, %87, %55, %27
  %96 = load i32, ptr %3, align 4
  ret i32 %96

97:                                               ; preds = %83
  %98 = load ptr, ptr %9, align 8
  %99 = load i32, ptr %10, align 4
  %100 = insertvalue { ptr, i32 } poison, ptr %98, 0
  %101 = insertvalue { ptr, i32 } %100, i32 %99, 1
  resume { ptr, i32 } %101
}