; Function Attrs: mustprogress uwtable
define hidden noundef i32 @_ZN5ceres8internal31CUDADenseCholeskyMixedPrecision21CudaCholeskyFactorizeEPNSt7__cxx1112basic_stringIcSt11char_traitsIcESaIcEEE(ptr noundef nonnull align 8 dereferenceable(248) %0, ptr noundef %1) local_unnamed_addr #3 align 2 personality ptr @__gxx_personality_v0 {
  %3 = alloca i32, align 4
  %4 = alloca i32, align 4
  %5 = alloca %"class.google::LogMessageFatal", align 8
  %6 = alloca %"class.std::__cxx11::basic_string", align 8
  store i32 0, ptr %3, align 4
  %7 = getelementptr inbounds i8, ptr %0, i64 8
  %8 = load ptr, ptr %7, align 8
  %9 = getelementptr inbounds i8, ptr %8, i64 248
  %10 = load ptr, ptr %9, align 8
  %11 = getelementptr inbounds i8, ptr %0, i64 16
  %12 = load i64, ptr %11, align 8
  %13 = trunc i64 %12 to i32
  %14 = getelementptr inbounds i8, ptr %0, i64 72
  %15 = load ptr, ptr %14, align 8
  %16 = call i32 @cusolverDnSpotrf_bufferSize(ptr noundef %10, i32 noundef 0, i32 noundef %13, ptr noundef %15, i32 noundef %13, ptr noundef nonnull %3)
  %.not = icmp eq i32 %16, 0
  br i1 %.not, label %19, label %17

17:                                               ; preds = %2
  %18 = call noundef nonnull align 8 dereferenceable(32) ptr @_ZNSt7__cxx1112basic_stringIcSt11char_traitsIcESaIcEEaSEPKc(ptr noundef nonnull align 8 dereferenceable(32) %1, ptr noundef nonnull @.str.27)
  br label %66

19:                                               ; preds = %2
  %20 = getelementptr inbounds i8, ptr %0, i64 96
  %21 = load i32, ptr %3, align 4
  %22 = sext i32 %21 to i64
  call void @_ZN5ceres8internal10CudaBufferIfE7ReserveEm(ptr noundef nonnull align 8 dereferenceable(24) %20, i64 noundef %22)
  %23 = load ptr, ptr %7, align 8
  %24 = getelementptr inbounds i8, ptr %23, i64 248
  %25 = load ptr, ptr %24, align 8
  %26 = load i64, ptr %11, align 8
  %27 = trunc i64 %26 to i32
  %28 = load ptr, ptr %14, align 8
  %29 = load ptr, ptr %20, align 8
  %30 = getelementptr inbounds i8, ptr %0, i64 104
  %31 = load i64, ptr %30, align 8
  %32 = trunc i64 %31 to i32
  %33 = getelementptr inbounds i8, ptr %0, i64 120
  %34 = load ptr, ptr %33, align 8
  %35 = call i32 @cusolverDnSpotrf(ptr noundef %25, i32 noundef 0, i32 noundef %27, ptr noundef %28, i32 noundef %27, ptr noundef %29, i32 noundef %32, ptr noundef %34)
  %.not6 = icmp eq i32 %35, 0
  br i1 %.not6, label %38, label %36

36:                                               ; preds = %19
  %37 = call noundef nonnull align 8 dereferenceable(32) ptr @_ZNSt7__cxx1112basic_stringIcSt11char_traitsIcESaIcEEaSEPKc(ptr noundef nonnull align 8 dereferenceable(32) %1, ptr noundef nonnull @.str.28)
  br label %66

38:                                               ; preds = %19
  store i32 0, ptr %4, align 4
  call void @_ZNK5ceres8internal10CudaBufferIiE9CopyToCpuEPim(ptr noundef nonnull align 8 dereferenceable(24) %33, ptr noundef nonnull %4, i64 noundef 1)
  %39 = load i32, ptr %4, align 4
  %40 = icmp slt i32 %39, 0
  br i1 %40, label %41, label %60

41:                                               ; preds = %38
  call void @_ZN6google15LogMessageFatalC1EPKci(ptr noundef nonnull align 8 dereferenceable(96) %5, ptr noundef nonnull @.str, i32 noundef 493)
  %42 = invoke noundef nonnull align 8 dereferenceable(8) ptr @_ZN6google10LogMessage6streamEv(ptr noundef nonnull align 8 dereferenceable(96) %5)
          to label %43 unwind label %58

43:                                               ; preds = %41
  %44 = invoke noundef nonnull align 8 dereferenceable(8) ptr @_ZStlsISt11char_traitsIcEERSt13basic_ostreamIcT_ES5_PKc(ptr noundef nonnull align 8 dereferenceable(8) %42, ptr noundef nonnull @.str.19)
          to label %45 unwind label %58

45:                                               ; preds = %43
  %46 = invoke noundef nonnull align 8 dereferenceable(8) ptr @_ZStlsISt11char_traitsIcEERSt13basic_ostreamIcT_ES5_PKc(ptr noundef nonnull align 8 dereferenceable(8) %44, ptr noundef nonnull @.str.20)
          to label %47 unwind label %58

47:                                               ; preds = %45
  %48 = invoke noundef nonnull align 8 dereferenceable(8) ptr @_ZStlsISt11char_traitsIcEERSt13basic_ostreamIcT_ES5_PKc(ptr noundef nonnull align 8 dereferenceable(8) %46, ptr noundef nonnull @.str.29)
          to label %49 unwind label %58

49:                                               ; preds = %47
  %50 = invoke noundef nonnull align 8 dereferenceable(8) ptr @_ZStlsISt11char_traitsIcEERSt13basic_ostreamIcT_ES5_PKc(ptr noundef nonnull align 8 dereferenceable(8) %48, ptr noundef nonnull @.str.9)
          to label %51 unwind label %58

51:                                               ; preds = %49
  %52 = load i32, ptr %4, align 4
  %53 = sub nsw i32 0, %52
  %54 = invoke noundef nonnull align 8 dereferenceable(8) ptr @_ZNSolsEi(ptr noundef nonnull align 8 dereferenceable(8) %50, i32 noundef %53)
          to label %55 unwind label %58

55:                                               ; preds = %51
  %56 = invoke noundef nonnull align 8 dereferenceable(8) ptr @_ZStlsISt11char_traitsIcEERSt13basic_ostreamIcT_ES5_PKc(ptr noundef nonnull align 8 dereferenceable(8) %54, ptr noundef nonnull @.str.10)
          to label %57 unwind label %58

57:                                               ; preds = %55
  call void @_ZN6google15LogMessageFatalD1Ev(ptr noundef nonnull align 8 dereferenceable(96) %5) #23
  unreachable

58:                                               ; preds = %55, %51, %49, %47, %45, %43, %41
  %59 = landingpad { ptr, i32 }
          cleanup
  call void @_ZN6google15LogMessageFatalD1Ev(ptr noundef nonnull align 8 dereferenceable(96) %5) #23
  unreachable

60:                                               ; preds = %38
  %.not7 = icmp eq i32 %39, 0
  br i1 %.not7, label %64, label %61

61:                                               ; preds = %60
  call void (ptr, ptr, ...) @_ZN5ceres8internal12StringPrintfB5cxx11EPKcz(ptr dead_on_unwind nonnull writable sret(%"class.std::__cxx11::basic_string") align 8 %6, ptr noundef nonnull @.str.30, i32 noundef %39)
  %62 = call noundef nonnull align 8 dereferenceable(32) ptr @_ZNSt7__cxx1112basic_stringIcSt11char_traitsIcESaIcEEaSEOS4_(ptr noundef nonnull align 8 dereferenceable(32) %1, ptr noundef nonnull align 8 dereferenceable(32) %6) #26
  call void @_ZNSt7__cxx1112basic_stringIcSt11char_traitsIcESaIcEED1Ev(ptr noundef nonnull align 8 dereferenceable(32) %6) #26
  %63 = getelementptr inbounds i8, ptr %0, i64 244
  store i32 2, ptr %63, align 4
  br label %66

64:                                               ; preds = %60
  %65 = call noundef nonnull align 8 dereferenceable(32) ptr @_ZNSt7__cxx1112basic_stringIcSt11char_traitsIcESaIcEEaSEPKc(ptr noundef nonnull align 8 dereferenceable(32) %1, ptr noundef nonnull @.str.13)
  br label %66

66:                                               ; preds = %64, %61, %36, %17
  %.0 = phi i32 [ 3, %17 ], [ 3, %36 ], [ 2, %61 ], [ 0, %64 ]
  ret i32 %.0
}